target datalayout = "e-m:e-p270:32:32-p271:32:32-p272:64:64-i64:64-i128:128-f80:128-n8:16:32:64-S128"
target triple = "x86_64-pc-linux-gnu"

%struct.QueryCompletion = type { i32, i64 }
%struct.CommandTagBehavior = type { ptr, i8, i8, i8, i8 }

; Function Attrs: nounwind uwtable
define dso_local zeroext i1 @command_tag_display_rowcount(i32 noundef %0) #0 {
  %2 = alloca i32, align 4
  store i32 %0, ptr %2, align 4
  %3 = load i32, ptr %2, align 4
  %4 = zext i32 %3 to i64
  %5 = getelementptr inbounds nuw [193 x %struct.CommandTagBehavior], ptr @tag_behavior, i64 0, i64 %4
  %6 = getelementptr inbounds nuw %struct.CommandTagBehavior, ptr %5, i32 0, i32 4
  %7 = load i8, ptr %6, align 1, !range !4, !noundef !5
  %8 = trunc i8 %7 to i1
  ret i1 %8
}

; Function Attrs: nounwind uwtable
define dso_local ptr @GetCommandTagNameAndLen(i32 noundef %0, ptr noundef %1) #0 {
  %3 = alloca i32, align 4
  %4 = alloca ptr, align 8
  store i32 %0, ptr %3, align 4
  store ptr %1, ptr %4, align 8
  %5 = load i32, ptr %3, align 4
  %6 = zext i32 %5 to i64
  %7 = getelementptr inbounds nuw [193 x %struct.CommandTagBehavior], ptr @tag_behavior, i64 0, i64 %6
  %8 = getelementptr inbounds nuw %struct.CommandTagBehavior, ptr %7, i32 0, i32 1
  %9 = load i8, ptr %8, align 8
  %10 = zext i8 %9 to i64
  %11 = load ptr, ptr %4, align 8
  store i64 %10, ptr %11, align 8
  %12 = load i32, ptr %3, align 4
  %13 = zext i32 %12 to i64
  %14 = getelementptr inbounds nuw [193 x %struct.CommandTagBehavior], ptr @tag_behavior, i64 0, i64 %13
  %15 = getelementptr inbounds nuw %struct.CommandTagBehavior, ptr %14, i32 0, i32 0
  %16 = load ptr, ptr %15, align 16
  ret ptr %16
}

; Function Attrs: nounwind uwtable
define dso_local i64 @BuildQueryCompletionString(ptr noundef %0, ptr noundef %1, i1 noundef zeroext %2) #0 {
  %4 = alloca ptr, align 8
  %5 = alloca ptr, align 8
  %6 = alloca i8, align 1
  %7 = alloca i32, align 4
  %8 = alloca i64, align 8
  %9 = alloca ptr, align 8
  %10 = alloca ptr, align 8
  store ptr %0, ptr %4, align 8
  store ptr %1, ptr %5, align 8
  %11 = zext i1 %2 to i8
  store i8 %11, ptr %6, align 1
  call void @llvm.lifetime.start.p0(i64 4, ptr %7) #4
  %12 = load ptr, ptr %5, align 8
  %13 = getelementptr inbounds nuw %struct.QueryCompletion, ptr %12, i32 0, i32 0
  %14 = load i32, ptr %13, align 8
  store i32 %14, ptr %7, align 4
  call void @llvm.lifetime.start.p0(i64 8, ptr %8) #4
  call void @llvm.lifetime.start.p0(i64 8, ptr %9) #4
  %15 = load i32, ptr %7, align 4
  %16 = call ptr @GetCommandTagNameAndLen(i32 noundef %15, ptr noundef %8)
  store ptr %16, ptr %9, align 8
  call void @llvm.lifetime.start.p0(i64 8, ptr %10) #4
  %17 = load ptr, ptr %4, align 8
  %18 = load ptr, ptr %9, align 8
  %19 = load i64, ptr %8, align 8
  call void @llvm.memcpy.p0.p0.i64(ptr align 1 %17, ptr align 1 %18, i64 %19, i1 false)
  %20 = load ptr, ptr %4, align 8
  %21 = load i64, ptr %8, align 8
  %22 = getelementptr inbounds nuw i8, ptr %20, i64 %21
  store ptr %22, ptr %10, align 8
  %23 = load i32, ptr %7, align 4
  %24 = call zeroext i1 @command_tag_display_rowcount(i32 noundef %23)
  br i1 %24, label %25, label %47

25:                                               ; preds = %3
  %26 = load i8, ptr %6, align 1, !range !4, !noundef !5
  %27 = trunc i8 %26 to i1
  br i1 %27, label %47, label %28

28:                                               ; preds = %25
  %29 = load i32, ptr %7, align 4
  %30 = icmp eq i32 %29, 158
  br i1 %30, label %31, label %36

31:                                               ; preds = %28
  %32 = load ptr, ptr %10, align 8
  %33 = getelementptr inbounds nuw i8, ptr %32, i32 1
  store ptr %33, ptr %10, align 8
  store i8 32, ptr %32, align 1
  %34 = load ptr, ptr %10, align 8
  %35 = getelementptr inbounds nuw i8, ptr %34, i32 1
  store ptr %35, ptr %10, align 8
  store i8 48, ptr %34, align 1
  br label %36

36:                                               ; preds = %31, %28
  %37 = load ptr, ptr %10, align 8
  %38 = getelementptr inbounds nuw i8, ptr %37, i32 1
  store ptr %38, ptr %10, align 8
  store i8 32, ptr %37, align 1
  %39 = load ptr, ptr %5, align 8
  %40 = getelementptr inbounds nuw %struct.QueryCompletion, ptr %39, i32 0, i32 1
  %41 = load i64, ptr %40, align 8
  %42 = load ptr, ptr %10, align 8
  %43 = call i32 @pg_ulltoa_n(i64 noundef %41, ptr noundef %42)
  %44 = load ptr, ptr %10, align 8
  %45 = sext i32 %43 to i64
  %46 = getelementptr inbounds i8, ptr %44, i64 %45
  store ptr %46, ptr %10, align 8
  br label %47

47:                                               ; preds = %36, %25, %3
  %48 = load ptr, ptr %10, align 8
  store i8 0, ptr %48, align 1
  %49 = load ptr, ptr %10, align 8
  %50 = load ptr, ptr %4, align 8
  %51 = ptrtoint ptr %49 to i64
  %52 = ptrtoint ptr %50 to i64
  %53 = sub i64 %51, %52
  call void @llvm.lifetime.end.p0(i64 8, ptr %10) #4
  call void @llvm.lifetime.end.p0(i64 8, ptr %9) #4
  call void @llvm.lifetime.end.p0(i64 8, ptr %8) #4
  call void @llvm.lifetime.end.p0(i64 4, ptr %7) #4
  ret i64 %53
}