; Function Attrs: nounwind uwtable
define dso_local noundef i64 @BuildQueryCompletionString(ptr noundef %0, ptr noundef readonly captures(none) %1, i1 noundef zeroext %2) local_unnamed_addr #2 {
  %4 = load i32, ptr %1, align 8
  %5 = zext i32 %4 to i64
  %6 = getelementptr inbounds nuw [193 x %struct.CommandTagBehavior], ptr @tag_behavior, i64 0, i64 %5
  %7 = getelementptr inbounds nuw i8, ptr %6, i64 8
  %8 = load i8, ptr %7, align 8
  %9 = zext i8 %8 to i64
  %10 = load ptr, ptr %6, align 16
  tail call void @llvm.memcpy.p0.p0.i64(ptr align 1 %0, ptr align 1 %10, i64 %9, i1 false)
  %11 = getelementptr inbounds nuw i8, ptr %0, i64 %9
  %12 = getelementptr inbounds nuw [193 x %struct.CommandTagBehavior], ptr @tag_behavior, i64 0, i64 %5, i32 4
  %13 = load i8, ptr %12, align 1, !range !4, !noundef !5
  %14 = trunc nuw i8 %13 to i1
  %.not = xor i1 %14, true
  %brmerge = or i1 %2, %.not
  br i1 %brmerge, label %27, label %15

15:                                               ; preds = %3
  %16 = icmp eq i32 %4, 158
  br i1 %16, label %17, label %20

17:                                               ; preds = %15
  %18 = getelementptr inbounds nuw i8, ptr %11, i64 1
  store i8 32, ptr %11, align 1
  %19 = getelementptr inbounds nuw i8, ptr %11, i64 2
  store i8 48, ptr %18, align 1
  br label %20

20:                                               ; preds = %17, %15
  %.1 = phi ptr [ %19, %17 ], [ %11, %15 ]
  %21 = getelementptr inbounds nuw i8, ptr %.1, i64 1
  store i8 32, ptr %.1, align 1
  %22 = getelementptr inbounds nuw i8, ptr %1, i64 8
  %23 = load i64, ptr %22, align 8
  %24 = tail call i32 @pg_ulltoa_n(i64 noundef %23, ptr noundef nonnull %21) #5
  %25 = sext i32 %24 to i64
  %26 = getelementptr inbounds i8, ptr %21, i64 %25
  br label %27

27:                                               ; preds = %3, %20
  %.0 = phi ptr [ %26, %20 ], [ %11, %3 ]
  store i8 0, ptr %.0, align 1
  %28 = ptrtoint ptr %.0 to i64
  %29 = ptrtoint ptr %0 to i64
  %30 = sub i64 %28, %29
  ret i64 %30
}